target datalayout = "e-m:e-p270:32:32-p271:32:32-p272:64:64-i64:64-i128:128-f80:128-n8:16:32:64-S128"
target triple = "x86_64-pc-linux-gnu"

%struct.expert_field = type { i32, i32 }
%struct._address = type { i32, i32, ptr, ptr }
%struct._packet_info = type { ptr, ptr, i32, i32, %struct.nstime_t, %struct.nstime_t, %struct.nstime_t, i8, ptr, ptr, ptr, ptr, %struct._address, %struct._address, %struct._address, %struct._address, %struct._address, %struct._address, i32, ptr, i8, [3 x i8], %struct.anon, i32, i32, i32, i32, ptr, i8, ptr, ptr, i16, i16, i32, i32, i16, i32, i32, ptr, ptr, ptr, i8, i8, i16, i16, i16, i32, i16, i16, ptr, ptr, ptr, ptr, ptr, i32, i32 }
%struct.nstime_t = type { i64, i32 }
%struct.anon = type { i8, [3 x i8] }

@hf_dvbci_buf_size = internal global i32 0, align 4
@ei_dvbci_buf_size = internal global %struct.expert_field zeroinitializer, align 4
@buf_size_cam = internal global i16 0, align 2
@buf_size_host = internal global i16 0, align 2
@.str.1101 = private unnamed_addr constant [13 x i8] c"%s: %u bytes\00", align 1
@.str.1102 = private unnamed_addr constant [23 x i8] c"negotiated buffer size\00", align 1
@.str.1103 = private unnamed_addr constant [21 x i8] c"buffer size proposal\00", align 1
@.str.1104 = private unnamed_addr constant [33 x i8] c"Negotiated buffer size: %u bytes\00", align 1
@.str.1105 = private unnamed_addr constant [95 x i8] c"Illegal buffer size command. Host shall not request a buffer size larger than the CAM proposal\00", align 1
@.str.1106 = private unnamed_addr constant [42 x i8] c"Buffer size proposal by the CAM: %u bytes\00", align 1
@.str.1107 = private unnamed_addr constant [53 x i8] c"Illegal buffer size, minimum buffer size is 16 bytes\00", align 1

; Function Attrs: null_pointer_is_valid sspstrong uwtable
define internal void @dissect_dvbci_buf_neg(ptr noundef %0, ptr noundef %1, ptr noundef %2, i8 noundef zeroext %3) #0 {
  %5 = alloca ptr, align 8
  %6 = alloca ptr, align 8
  %7 = alloca ptr, align 8
  %8 = alloca i8, align 1
  %9 = alloca i16, align 2
  %10 = alloca ptr, align 8
  store ptr %0, ptr %5, align 8
  store ptr %1, ptr %6, align 8
  store ptr %2, ptr %7, align 8
  store i8 %3, ptr %8, align 1
  call void @llvm.lifetime.start.p0(i64 2, ptr %9) #11
  call void @llvm.lifetime.start.p0(i64 8, ptr %10) #11
  %11 = load ptr, ptr %5, align 8
  %12 = call zeroext i16 @tvb_get_ntohs(ptr noundef %11, i32 noundef 0)
  store i16 %12, ptr %9, align 2
  %13 = load ptr, ptr %6, align 8
  %14 = getelementptr inbounds nuw %struct._packet_info, ptr %13, i32 0, i32 1
  %15 = load ptr, ptr %14, align 8
  %16 = load i8, ptr %8, align 1
  %17 = zext i8 %16 to i32
  %18 = icmp eq i32 %17, 254
  %19 = select i1 %18, ptr @.str.1102, ptr @.str.1103
  %20 = load i16, ptr %9, align 2
  %21 = zext i16 %20 to i32
  call void (ptr, i32, ptr, ...) @col_add_fstr(ptr noundef %15, i32 noundef 25, ptr noundef @.str.1101, ptr noundef %19, i32 noundef %21)
  %22 = load i8, ptr %8, align 1
  %23 = zext i8 %22 to i32
  %24 = icmp eq i32 %23, 254
  br i1 %24, label %25, label %45

25:                                               ; preds = %4
  %26 = load i16, ptr %9, align 2
  store i16 %26, ptr @buf_size_host, align 2
  %27 = load ptr, ptr %7, align 8
  %28 = load i32, ptr @hf_dvbci_buf_size, align 4
  %29 = load ptr, ptr %5, align 8
  %30 = load i16, ptr %9, align 2
  %31 = zext i16 %30 to i32
  %32 = load i16, ptr %9, align 2
  %33 = zext i16 %32 to i32
  %34 = call ptr (ptr, i32, ptr, i32, i32, i32, ptr, ...) @proto_tree_add_uint_format(ptr noundef %27, i32 noundef %28, ptr noundef %29, i32 noundef 0, i32 noundef 2, i32 noundef %31, ptr noundef @.str.1104, i32 noundef %33)
  store ptr %34, ptr %10, align 8
  %35 = load i16, ptr @buf_size_host, align 2
  %36 = zext i16 %35 to i32
  %37 = load i16, ptr @buf_size_cam, align 2
  %38 = zext i16 %37 to i32
  %39 = icmp sgt i32 %36, %38
  br i1 %39, label %40, label %44

40:                                               ; preds = %25
  %41 = load ptr, ptr %6, align 8
  %42 = load ptr, ptr %10, align 8
  %43 = call ptr (ptr, ptr, ptr, ptr, ...) @expert_add_info_format(ptr noundef %41, ptr noundef %42, ptr noundef @ei_dvbci_buf_size, ptr noundef @.str.1105)
  br label %44

44:                                               ; preds = %40, %25
  br label %60

45:                                               ; preds = %4
  %46 = load i8, ptr %8, align 1
  %47 = zext i8 %46 to i32
  %48 = icmp eq i32 %47, 255
  br i1 %48, label %49, label %59

49:                                               ; preds = %45
  %50 = load i16, ptr %9, align 2
  store i16 %50, ptr @buf_size_cam, align 2
  %51 = load ptr, ptr %7, align 8
  %52 = load i32, ptr @hf_dvbci_buf_size, align 4
  %53 = load ptr, ptr %5, align 8
  %54 = load i16, ptr %9, align 2
  %55 = zext i16 %54 to i32
  %56 = load i16, ptr %9, align 2
  %57 = zext i16 %56 to i32
  %58 = call ptr (ptr, i32, ptr, i32, i32, i32, ptr, ...) @proto_tree_add_uint_format(ptr noundef %51, i32 noundef %52, ptr noundef %53, i32 noundef 0, i32 noundef 2, i32 noundef %55, ptr noundef @.str.1106, i32 noundef %57)
  br label %59

59:                                               ; preds = %49, %45
  br label %60

60:                                               ; preds = %59, %44
  %61 = load i16, ptr %9, align 2
  %62 = zext i16 %61 to i32
  %63 = icmp slt i32 %62, 16
  br i1 %63, label %64, label %69

64:                                               ; preds = %60
  %65 = load ptr, ptr %7, align 8
  %66 = load ptr, ptr %6, align 8
  %67 = load ptr, ptr %5, align 8
  %68 = call ptr (ptr, ptr, ptr, ptr, i32, i32, ptr, ...) @proto_tree_add_expert_format(ptr noundef %65, ptr noundef %66, ptr noundef @ei_dvbci_buf_size, ptr noundef %67, i32 noundef 0, i32 noundef 2, ptr noundef @.str.1107)
  br label %69

69:                                               ; preds = %64, %60
  call void @llvm.lifetime.end.p0(i64 8, ptr %10) #11
  call void @llvm.lifetime.end.p0(i64 2, ptr %9) #11
  ret void
}