; Function Attrs: null_pointer_is_valid sspstrong uwtable
define internal fastcc void @dissect_dvbci_buf_neg(ptr noundef %0, ptr noundef %1, ptr noundef %2, i8 noundef zeroext %3) unnamed_addr #1 {
  %5 = tail call zeroext i16 @tvb_get_ntohs(ptr noundef %0, i32 noundef 0)
  %6 = getelementptr inbounds nuw i8, ptr %1, i64 8
  %7 = load ptr, ptr %6, align 8
  %8 = icmp eq i8 %3, -2
  %9 = select i1 %8, ptr @.str.1102, ptr @.str.1103
  %10 = zext i16 %5 to i32
  tail call void (ptr, i32, ptr, ...) @col_add_fstr(ptr noundef %7, i32 noundef 25, ptr noundef nonnull @.str.1101, ptr noundef nonnull %9, i32 noundef %10)
  br i1 %8, label %11, label %19

11:                                               ; preds = %4
  store i16 %5, ptr @buf_size_host, align 2
  %12 = load i32, ptr @hf_dvbci_buf_size, align 4
  %13 = tail call ptr (ptr, i32, ptr, i32, i32, i32, ptr, ...) @proto_tree_add_uint_format(ptr noundef %2, i32 noundef %12, ptr noundef %0, i32 noundef 0, i32 noundef 2, i32 noundef %10, ptr noundef nonnull @.str.1104, i32 noundef %10)
  %14 = load i16, ptr @buf_size_host, align 2
  %15 = load i16, ptr @buf_size_cam, align 2
  %16 = icmp ugt i16 %14, %15
  br i1 %16, label %17, label %24

17:                                               ; preds = %11
  %18 = tail call ptr (ptr, ptr, ptr, ptr, ...) @expert_add_info_format(ptr noundef %1, ptr noundef %13, ptr noundef nonnull @ei_dvbci_buf_size, ptr noundef nonnull @.str.1105)
  br label %24

19:                                               ; preds = %4
  %20 = icmp eq i8 %3, -1
  br i1 %20, label %21, label %24

21:                                               ; preds = %19
  store i16 %5, ptr @buf_size_cam, align 2
  %22 = load i32, ptr @hf_dvbci_buf_size, align 4
  %23 = tail call ptr (ptr, i32, ptr, i32, i32, i32, ptr, ...) @proto_tree_add_uint_format(ptr noundef %2, i32 noundef %22, ptr noundef %0, i32 noundef 0, i32 noundef 2, i32 noundef %10, ptr noundef nonnull @.str.1106, i32 noundef %10)
  br label %24

24:                                               ; preds = %19, %21, %11, %17
  %25 = icmp ult i16 %5, 16
  br i1 %25, label %26, label %28

26:                                               ; preds = %24
  %27 = tail call ptr (ptr, ptr, ptr, ptr, i32, i32, ptr, ...) @proto_tree_add_expert_format(ptr noundef %2, ptr noundef %1, ptr noundef nonnull @ei_dvbci_buf_size, ptr noundef %0, i32 noundef 0, i32 noundef 2, ptr noundef nonnull @.str.1107)
  br label %28

28:                                               ; preds = %26, %24
  ret void
}